target datalayout = "e-m:e-p270:32:32-p271:32:32-p272:64:64-i64:64-i128:128-f80:128-n8:16:32:64-S128"
target triple = "x86_64-pc-linux-gnu"

%struct.b2TreeNode = type { %struct.b2AABB, i64, %union.anon, i32, %union.anon.0, i16, i16 }
%struct.b2AABB = type { %struct.b2Vec2, %struct.b2Vec2 }
%struct.b2Vec2 = type { float, float }
%union.anon = type { i32 }
%union.anon.0 = type { i32 }
%struct.b2DynamicTree = type { ptr, i32, i32, i32, i32, i32, ptr, ptr, ptr, ptr, i32 }

; Function Attrs: nounwind uwtable
define internal zeroext i1 @b2IsLeaf(ptr noundef %0) #0 {
  %2 = alloca ptr, align 8
  store ptr %0, ptr %2, align 8, !tbaa !31
  %3 = load ptr, ptr %2, align 8, !tbaa !31
  %4 = getelementptr inbounds nuw %struct.b2TreeNode, ptr %3, i32 0, i32 6
  %5 = load i16, ptr %4, align 2, !tbaa !41
  %6 = zext i16 %5 to i32
  %7 = and i32 %6, 4
  %8 = icmp ne i32 %7, 0
  ret i1 %8
}

; Function Attrs: nounwind uwtable
define internal zeroext i1 @b2IsAllocated(ptr noundef %0) #0 {
  %2 = alloca ptr, align 8
  store ptr %0, ptr %2, align 8, !tbaa !31
  %3 = load ptr, ptr %2, align 8, !tbaa !31
  %4 = getelementptr inbounds nuw %struct.b2TreeNode, ptr %3, i32 0, i32 6
  %5 = load i16, ptr %4, align 2, !tbaa !41
  %6 = zext i16 %5 to i32
  %7 = and i32 %6, 1
  %8 = icmp ne i32 %7, 0
  ret i1 %8
}

; Function Attrs: inlinehint nounwind uwtable
define internal float @b2Perimeter(<2 x float> %0, <2 x float> %1) #6 {
  %3 = alloca %struct.b2AABB, align 4
  %4 = alloca float, align 4
  %5 = alloca float, align 4
  %6 = getelementptr inbounds nuw { <2 x float>, <2 x float> }, ptr %3, i32 0, i32 0
  store <2 x float> %0, ptr %6, align 4
  %7 = getelementptr inbounds nuw { <2 x float>, <2 x float> }, ptr %3, i32 0, i32 1
  store <2 x float> %1, ptr %7, align 4
  call void @llvm.lifetime.start.p0(i64 4, ptr %4) #9
  %8 = getelementptr inbounds nuw %struct.b2AABB, ptr %3, i32 0, i32 1
  %9 = getelementptr inbounds nuw %struct.b2Vec2, ptr %8, i32 0, i32 0
  %10 = load float, ptr %9, align 4, !tbaa !57
  %11 = getelementptr inbounds nuw %struct.b2AABB, ptr %3, i32 0, i32 0
  %12 = getelementptr inbounds nuw %struct.b2Vec2, ptr %11, i32 0, i32 0
  %13 = load float, ptr %12, align 4, !tbaa !55
  %14 = fsub float %10, %13
  store float %14, ptr %4, align 4, !tbaa !33
  call void @llvm.lifetime.start.p0(i64 4, ptr %5) #9
  %15 = getelementptr inbounds nuw %struct.b2AABB, ptr %3, i32 0, i32 1
  %16 = getelementptr inbounds nuw %struct.b2Vec2, ptr %15, i32 0, i32 1
  %17 = load float, ptr %16, align 4, !tbaa !58
  %18 = getelementptr inbounds nuw %struct.b2AABB, ptr %3, i32 0, i32 0
  %19 = getelementptr inbounds nuw %struct.b2Vec2, ptr %18, i32 0, i32 1
  %20 = load float, ptr %19, align 4, !tbaa !56
  %21 = fsub float %17, %20
  store float %21, ptr %5, align 4, !tbaa !33
  %22 = load float, ptr %4, align 4, !tbaa !33
  %23 = load float, ptr %5, align 4, !tbaa !33
  %24 = fadd float %22, %23
  %25 = fmul float 2.000000e+00, %24
  call void @llvm.lifetime.end.p0(i64 4, ptr %5) #9
  call void @llvm.lifetime.end.p0(i64 4, ptr %4) #9
  ret float %25
}

; Function Attrs: nounwind uwtable
define float @b2DynamicTree_GetAreaRatio(ptr noundef %0) #4 {
  %2 = alloca float, align 4
  %3 = alloca ptr, align 8
  %4 = alloca ptr, align 8
  %5 = alloca float, align 4
  %6 = alloca float, align 4
  %7 = alloca i32, align 4
  %8 = alloca i32, align 4
  %9 = alloca ptr, align 8
  store ptr %0, ptr %3, align 8, !tbaa !27
  %10 = load ptr, ptr %3, align 8, !tbaa !27
  %11 = getelementptr inbounds nuw %struct.b2DynamicTree, ptr %10, i32 0, i32 1
  %12 = load i32, ptr %11, align 8, !tbaa !3
  %13 = icmp eq i32 %12, -1
  br i1 %13, label %14, label %15

14:                                               ; preds = %1
  store float 0.000000e+00, ptr %2, align 4
  br label %79

15:                                               ; preds = %1
  call void @llvm.lifetime.start.p0(i64 8, ptr %4) #9
  %16 = load ptr, ptr %3, align 8, !tbaa !27
  %17 = getelementptr inbounds nuw %struct.b2DynamicTree, ptr %16, i32 0, i32 0
  %18 = load ptr, ptr %17, align 8, !tbaa !15
  %19 = load ptr, ptr %3, align 8, !tbaa !27
  %20 = getelementptr inbounds nuw %struct.b2DynamicTree, ptr %19, i32 0, i32 1
  %21 = load i32, ptr %20, align 8, !tbaa !3
  %22 = sext i32 %21 to i64
  %23 = getelementptr inbounds %struct.b2TreeNode, ptr %18, i64 %22
  store ptr %23, ptr %4, align 8, !tbaa !31
  call void @llvm.lifetime.start.p0(i64 4, ptr %5) #9
  %24 = load ptr, ptr %4, align 8, !tbaa !31
  %25 = getelementptr inbounds nuw %struct.b2TreeNode, ptr %24, i32 0, i32 0
  %26 = getelementptr inbounds nuw { <2 x float>, <2 x float> }, ptr %25, i32 0, i32 0
  %27 = load <2 x float>, ptr %26, align 8
  %28 = getelementptr inbounds nuw { <2 x float>, <2 x float> }, ptr %25, i32 0, i32 1
  %29 = load <2 x float>, ptr %28, align 8
  %30 = call float @b2Perimeter(<2 x float> %27, <2 x float> %29)
  store float %30, ptr %5, align 4, !tbaa !33
  call void @llvm.lifetime.start.p0(i64 4, ptr %6) #9
  store float 0.000000e+00, ptr %6, align 4, !tbaa !33
  call void @llvm.lifetime.start.p0(i64 4, ptr %7) #9
  store i32 0, ptr %7, align 4, !tbaa !16
  br label %31

31:                                               ; preds = %72, %15
  %32 = load i32, ptr %7, align 4, !tbaa !16
  %33 = load ptr, ptr %3, align 8, !tbaa !27
  %34 = getelementptr inbounds nuw %struct.b2DynamicTree, ptr %33, i32 0, i32 3
  %35 = load i32, ptr %34, align 8, !tbaa !13
  %36 = icmp slt i32 %32, %35
  br i1 %36, label %38, label %37

37:                                               ; preds = %31
  store i32 2, ptr %8, align 4
  call void @llvm.lifetime.end.p0(i64 4, ptr %7) #9
  br label %75

38:                                               ; preds = %31
  call void @llvm.lifetime.start.p0(i64 8, ptr %9) #9
  %39 = load ptr, ptr %3, align 8, !tbaa !27
  %40 = getelementptr inbounds nuw %struct.b2DynamicTree, ptr %39, i32 0, i32 0
  %41 = load ptr, ptr %40, align 8, !tbaa !15
  %42 = load i32, ptr %7, align 4, !tbaa !16
  %43 = sext i32 %42 to i64
  %44 = getelementptr inbounds %struct.b2TreeNode, ptr %41, i64 %43
  store ptr %44, ptr %9, align 8, !tbaa !31
  %45 = load ptr, ptr %9, align 8, !tbaa !31
  %46 = call zeroext i1 @b2IsAllocated(ptr noundef %45)
  %47 = zext i1 %46 to i32
  %48 = icmp eq i32 %47, 0
  br i1 %48, label %58, label %49

49:                                               ; preds = %38
  %50 = load ptr, ptr %9, align 8, !tbaa !31
  %51 = call zeroext i1 @b2IsLeaf(ptr noundef %50)
  br i1 %51, label %58, label %52

52:                                               ; preds = %49
  %53 = load i32, ptr %7, align 4, !tbaa !16
  %54 = load ptr, ptr %3, align 8, !tbaa !27
  %55 = getelementptr inbounds nuw %struct.b2DynamicTree, ptr %54, i32 0, i32 1
  %56 = load i32, ptr %55, align 8, !tbaa !3
  %57 = icmp eq i32 %53, %56
  br i1 %57, label %58, label %59

58:                                               ; preds = %52, %49, %38
  store i32 4, ptr %8, align 4
  br label %69

59:                                               ; preds = %52
  %60 = load ptr, ptr %9, align 8, !tbaa !31
  %61 = getelementptr inbounds nuw %struct.b2TreeNode, ptr %60, i32 0, i32 0
  %62 = getelementptr inbounds nuw { <2 x float>, <2 x float> }, ptr %61, i32 0, i32 0
  %63 = load <2 x float>, ptr %62, align 8
  %64 = getelementptr inbounds nuw { <2 x float>, <2 x float> }, ptr %61, i32 0, i32 1
  %65 = load <2 x float>, ptr %64, align 8
  %66 = call float @b2Perimeter(<2 x float> %63, <2 x float> %65)
  %67 = load float, ptr %6, align 4, !tbaa !33
  %68 = fadd float %67, %66
  store float %68, ptr %6, align 4, !tbaa !33
  store i32 0, ptr %8, align 4
  br label %69

69:                                               ; preds = %59, %58
  call void @llvm.lifetime.end.p0(i64 8, ptr %9) #9
  %70 = load i32, ptr %8, align 4
  switch i32 %70, label %81 [
    i32 0, label %71
    i32 4, label %72
  ]

71:                                               ; preds = %69
  br label %72

72:                                               ; preds = %71, %69
  %73 = load i32, ptr %7, align 4, !tbaa !16
  %74 = add nsw i32 %73, 1
  store i32 %74, ptr %7, align 4, !tbaa !16
  br label %31, !llvm.loop !59

75:                                               ; preds = %37
  %76 = load float, ptr %6, align 4, !tbaa !33
  %77 = load float, ptr %5, align 4, !tbaa !33
  %78 = fdiv float %76, %77
  store float %78, ptr %2, align 4
  store i32 1, ptr %8, align 4
  call void @llvm.lifetime.end.p0(i64 4, ptr %6) #9
  call void @llvm.lifetime.end.p0(i64 4, ptr %5) #9
  call void @llvm.lifetime.end.p0(i64 8, ptr %4) #9
  br label %79

79:                                               ; preds = %75, %14
  %80 = load float, ptr %2, align 4
  ret float %80

81:                                               ; preds = %69
  unreachable
}