; Function Attrs: nofree norecurse nosync nounwind memory(read, inaccessiblemem: none) uwtable
define float @b2DynamicTree_GetAreaRatio(ptr noundef readonly captures(none) %0) local_unnamed_addr #9 {
  %2 = getelementptr inbounds nuw i8, ptr %0, i64 8
  %3 = load i32, ptr %2, align 8, !tbaa !3
  %4 = icmp eq i32 %3, -1
  br i1 %4, label %37, label %5

5:                                                ; preds = %1
  %6 = load ptr, ptr %0, align 8, !tbaa !15
  %7 = sext i32 %3 to i64
  %8 = getelementptr inbounds %struct.b2TreeNode, ptr %6, i64 %7
  %9 = load <2 x float>, ptr %8, align 8
  %10 = getelementptr inbounds nuw i8, ptr %8, i64 8
  %11 = load <2 x float>, ptr %10, align 8
  %12 = fsub <2 x float> %11, %9
  %13 = fsub <2 x float> %11, %9
  %shift = shufflevector <2 x float> %13, <2 x float> poison, <2 x i32> <i32 1, i32 poison>
  %14 = fadd <2 x float> %12, %shift
  %15 = extractelement <2 x float> %14, i64 0
  %16 = fmul float %15, 2.000000e+00
  %17 = getelementptr inbounds nuw i8, ptr %0, i64 16
  %18 = load i32, ptr %17, align 8, !tbaa !13
  %19 = icmp sgt i32 %18, 0
  br i1 %19, label %.lr.ph.preheader, label %._crit_edge

.lr.ph.preheader:                                 ; preds = %5
  %20 = zext i32 %3 to i64
  %wide.trip.count = zext nneg i32 %18 to i64
  br label %.lr.ph

._crit_edge:                                      ; preds = %36, %5
  %.018.lcssa = phi float [ 0.000000e+00, %5 ], [ %.1, %36 ]
  %21 = fdiv float %.018.lcssa, %16
  br label %37

.lr.ph:                                           ; preds = %.lr.ph.preheader, %36
  %indvars.iv = phi i64 [ 0, %.lr.ph.preheader ], [ %indvars.iv.next, %36 ]
  %.01827 = phi float [ 0.000000e+00, %.lr.ph.preheader ], [ %.1, %36 ]
  %22 = getelementptr inbounds nuw %struct.b2TreeNode, ptr %6, i64 %indvars.iv
  %23 = getelementptr i8, ptr %22, i64 38
  %.val = load i16, ptr %23, align 2, !tbaa !34
  %24 = and i16 %.val, 5
  %or.cond = icmp ne i16 %24, 1
  %25 = icmp eq i64 %indvars.iv, %20
  %or.cond26 = or i1 %25, %or.cond
  br i1 %or.cond26, label %36, label %26

26:                                               ; preds = %.lr.ph
  %27 = load <2 x float>, ptr %22, align 8
  %28 = getelementptr inbounds nuw i8, ptr %22, i64 8
  %29 = load <2 x float>, ptr %28, align 8
  %30 = fsub <2 x float> %29, %27
  %31 = fsub <2 x float> %29, %27
  %shift30 = shufflevector <2 x float> %31, <2 x float> poison, <2 x i32> <i32 1, i32 poison>
  %32 = fadd <2 x float> %30, %shift30
  %33 = extractelement <2 x float> %32, i64 0
  %34 = fmul float %33, 2.000000e+00
  %35 = fadd float %.01827, %34
  br label %36

36:                                               ; preds = %.lr.ph, %26
  %.1 = phi float [ %35, %26 ], [ %.01827, %.lr.ph ]
  %indvars.iv.next = add nuw nsw i64 %indvars.iv, 1
  %exitcond.not = icmp eq i64 %indvars.iv.next, %wide.trip.count
  br i1 %exitcond.not, label %._crit_edge, label %.lr.ph, !llvm.loop !49

37:                                               ; preds = %1, %._crit_edge
  %.0 = phi float [ %21, %._crit_edge ], [ 0.000000e+00, %1 ]
  ret float %.0
}